target datalayout = "e-m:e-p270:32:32-p271:32:32-p272:64:64-i64:64-i128:128-f80:128-n8:16:32:64-S128"
target triple = "x86_64-unknown-linux-gnu"

@.str = private unnamed_addr constant [1 x i8] zeroinitializer, align 1
@.str.1 = private unnamed_addr constant [47 x i8] c"%s: Unable to copy device tree into memory: %s\00", align 1
@__func__.create_device_tree = private unnamed_addr constant [19 x i8] c"create_device_tree\00", align 1
@.str.2 = private unnamed_addr constant [26 x i8] c"%s Couldn't create dt: %s\00", align 1

; Function Attrs: nounwind sspstrong uwtable
define dso_local ptr @create_device_tree(ptr noundef %sizep) #0 {
entry:
  %sizep.addr = alloca ptr, align 8
  %fdt = alloca ptr, align 8
  %ret = alloca i32, align 4
  store ptr %sizep, ptr %sizep.addr, align 8
  %0 = load ptr, ptr %sizep.addr, align 8
  store i32 1048576, ptr %0, align 4
  %call = call noalias ptr @g_malloc0(i64 noundef 1048576) #9
  store ptr %call, ptr %fdt, align 8
  %1 = load ptr, ptr %fdt, align 8
  %call1 = call i32 @fdt_create(ptr noundef %1, i32 noundef 1048576)
  store i32 %call1, ptr %ret, align 4
  %2 = load i32, ptr %ret, align 4
  %cmp = icmp slt i32 %2, 0
  br i1 %cmp, label %if.then, label %if.end

if.then:                                          ; preds = %entry
  br label %fail

if.end:                                           ; preds = %entry
  %3 = load ptr, ptr %fdt, align 8
  %call2 = call i32 @fdt_finish_reservemap(ptr noundef %3)
  store i32 %call2, ptr %ret, align 4
  %4 = load i32, ptr %ret, align 4
  %cmp3 = icmp slt i32 %4, 0
  br i1 %cmp3, label %if.then4, label %if.end5

if.then4:                                         ; preds = %if.end
  br label %fail

if.end5:                                          ; preds = %if.end
  %5 = load ptr, ptr %fdt, align 8
  %call6 = call i32 @fdt_begin_node(ptr noundef %5, ptr noundef @.str)
  store i32 %call6, ptr %ret, align 4
  %6 = load i32, ptr %ret, align 4
  %cmp7 = icmp slt i32 %6, 0
  br i1 %cmp7, label %if.then8, label %if.end9

if.then8:                                         ; preds = %if.end5
  br label %fail

if.end9:                                          ; preds = %if.end5
  %7 = load ptr, ptr %fdt, align 8
  %call10 = call i32 @fdt_end_node(ptr noundef %7)
  store i32 %call10, ptr %ret, align 4
  %8 = load i32, ptr %ret, align 4
  %cmp11 = icmp slt i32 %8, 0
  br i1 %cmp11, label %if.then12, label %if.end13

if.then12:                                        ; preds = %if.end9
  br label %fail

if.end13:                                         ; preds = %if.end9
  %9 = load ptr, ptr %fdt, align 8
  %call14 = call i32 @fdt_finish(ptr noundef %9)
  store i32 %call14, ptr %ret, align 4
  %10 = load i32, ptr %ret, align 4
  %cmp15 = icmp slt i32 %10, 0
  br i1 %cmp15, label %if.then16, label %if.end17

if.then16:                                        ; preds = %if.end13
  br label %fail

if.end17:                                         ; preds = %if.end13
  %11 = load ptr, ptr %fdt, align 8
  %12 = load ptr, ptr %fdt, align 8
  %13 = load ptr, ptr %sizep.addr, align 8
  %14 = load i32, ptr %13, align 4
  %call18 = call i32 @fdt_open_into(ptr noundef %11, ptr noundef %12, i32 noundef %14)
  store i32 %call18, ptr %ret, align 4
  %15 = load i32, ptr %ret, align 4
  %tobool = icmp ne i32 %15, 0
  br i1 %tobool, label %if.then19, label %if.end21

if.then19:                                        ; preds = %if.end17
  %16 = load i32, ptr %ret, align 4
  %call20 = call ptr @fdt_strerror(i32 noundef %16)
  call void (ptr, ...) @error_report(ptr noundef @.str.1, ptr noundef @__func__.create_device_tree, ptr noundef %call20)
  call void @exit(i32 noundef 1) #10
  unreachable

if.end21:                                         ; preds = %if.end17
  %17 = load ptr, ptr %fdt, align 8
  ret ptr %17

fail:                                             ; preds = %if.then16, %if.then12, %if.then8, %if.then4, %if.then
  %18 = load i32, ptr %ret, align 4
  %call22 = call ptr @fdt_strerror(i32 noundef %18)
  call void (ptr, ...) @error_report(ptr noundef @.str.2, ptr noundef @__func__.create_device_tree, ptr noundef %call22)
  call void @exit(i32 noundef 1) #10
  unreachable
}