; Function Attrs: nounwind sspstrong uwtable
define dso_local noundef ptr @create_device_tree(ptr noundef captures(none) initializes((0, 4)) %sizep) local_unnamed_addr #0 {
entry:
  store i32 1048576, ptr %sizep, align 4
  %call = tail call noalias dereferenceable_or_null(1048576) ptr @g_malloc0(i64 noundef 1048576) #11
  %call1 = tail call i32 @fdt_create(ptr noundef %call, i32 noundef 1048576) #12
  %cmp = icmp slt i32 %call1, 0
  br i1 %cmp, label %fail, label %if.end

if.end:                                           ; preds = %entry
  %call2 = tail call i32 @fdt_finish_reservemap(ptr noundef %call) #12
  %cmp3 = icmp slt i32 %call2, 0
  br i1 %cmp3, label %fail, label %if.end5

if.end5:                                          ; preds = %if.end
  %call6 = tail call i32 @fdt_begin_node(ptr noundef %call, ptr noundef nonnull @.str) #12
  %cmp7 = icmp slt i32 %call6, 0
  br i1 %cmp7, label %fail, label %if.end9

if.end9:                                          ; preds = %if.end5
  %call10 = tail call i32 @fdt_end_node(ptr noundef %call) #12
  %cmp11 = icmp slt i32 %call10, 0
  br i1 %cmp11, label %fail, label %if.end13

if.end13:                                         ; preds = %if.end9
  %call14 = tail call i32 @fdt_finish(ptr noundef %call) #12
  %cmp15 = icmp slt i32 %call14, 0
  br i1 %cmp15, label %fail, label %if.end17

if.end17:                                         ; preds = %if.end13
  %0 = load i32, ptr %sizep, align 4
  %call18 = tail call i32 @fdt_open_into(ptr noundef %call, ptr noundef %call, i32 noundef %0) #12
  %tobool.not = icmp eq i32 %call18, 0
  br i1 %tobool.not, label %if.end21, label %if.then19

if.then19:                                        ; preds = %if.end17
  %call20 = tail call ptr @fdt_strerror(i32 noundef %call18) #12
  tail call void (ptr, ...) @error_report(ptr noundef nonnull @.str.1, ptr noundef nonnull @__func__.create_device_tree, ptr noundef %call20) #12
  tail call void @exit(i32 noundef 1) #13
  unreachable

if.end21:                                         ; preds = %if.end17
  ret ptr %call

fail:                                             ; preds = %if.end13, %if.end9, %if.end5, %if.end, %entry
  %ret.0 = phi i32 [ %call1, %entry ], [ %call2, %if.end ], [ %call6, %if.end5 ], [ %call10, %if.end9 ], [ %call14, %if.end13 ]
  %call22 = tail call ptr @fdt_strerror(i32 noundef %ret.0) #12
  tail call void (ptr, ...) @error_report(ptr noundef nonnull @.str.2, ptr noundef nonnull @__func__.create_device_tree, ptr noundef %call22) #12
  tail call void @exit(i32 noundef 1) #13
  unreachable
}